; Function Attrs: mustprogress uwtable
define dso_local void @_ZN26cmCTestBuildAndTestHandlerC2Ev(ptr noundef nonnull align 8 dereferenceable(776) %0) unnamed_addr #3 align 2 personality ptr @__gxx_personality_v0 {
  tail call void @_ZN21cmCTestGenericHandlerC2Ev(ptr noundef nonnull align 8 dereferenceable(284) %0)
  store ptr getelementptr inbounds ({ [8 x ptr] }, ptr @_ZTV26cmCTestBuildAndTestHandler, i64 0, i32 0, i64 2), ptr %0, align 8
  %2 = getelementptr inbounds i8, ptr %0, i64 288
  tail call void @_ZNSt7__cxx1112basic_stringIcSt11char_traitsIcESaIcEEC1Ev(ptr noundef nonnull align 8 dereferenceable(32) %2) #16
  %3 = getelementptr inbounds i8, ptr %0, i64 320
  tail call void @_ZNSt7__cxx1112basic_stringIcSt11char_traitsIcESaIcEEC1Ev(ptr noundef nonnull align 8 dereferenceable(32) %3) #16
  %4 = getelementptr inbounds i8, ptr %0, i64 352
  tail call void @_ZNSt7__cxx1112basic_stringIcSt11char_traitsIcESaIcEEC1Ev(ptr noundef nonnull align 8 dereferenceable(32) %4) #16
  %5 = getelementptr inbounds i8, ptr %0, i64 384
  tail call void @_ZNSt7__cxx1112basic_stringIcSt11char_traitsIcESaIcEEC1Ev(ptr noundef nonnull align 8 dereferenceable(32) %5) #16
  %6 = getelementptr inbounds i8, ptr %0, i64 416
  tail call void @llvm.memset.p0.i64(ptr noundef nonnull align 8 dereferenceable(24) %6, i8 0, i64 24, i1 false)
  %7 = getelementptr inbounds i8, ptr %0, i64 448
  tail call void @_ZNSt7__cxx1112basic_stringIcSt11char_traitsIcESaIcEEC1Ev(ptr noundef nonnull align 8 dereferenceable(32) %7) #16
  %8 = getelementptr inbounds i8, ptr %0, i64 480
  tail call void @_ZNSt7__cxx1112basic_stringIcSt11char_traitsIcESaIcEEC1Ev(ptr noundef nonnull align 8 dereferenceable(32) %8) #16
  %9 = getelementptr inbounds i8, ptr %0, i64 512
  tail call void @_ZNSt7__cxx1112basic_stringIcSt11char_traitsIcESaIcEEC1Ev(ptr noundef nonnull align 8 dereferenceable(32) %9) #16
  %10 = getelementptr inbounds i8, ptr %0, i64 544
  tail call void @_ZNSt7__cxx1112basic_stringIcSt11char_traitsIcESaIcEEC1Ev(ptr noundef nonnull align 8 dereferenceable(32) %10) #16
  %11 = getelementptr inbounds i8, ptr %0, i64 576
  tail call void @_ZNSt7__cxx1112basic_stringIcSt11char_traitsIcESaIcEEC1Ev(ptr noundef nonnull align 8 dereferenceable(32) %11) #16
  %12 = getelementptr inbounds i8, ptr %0, i64 608
  tail call void @_ZNSt7__cxx1112basic_stringIcSt11char_traitsIcESaIcEEC1Ev(ptr noundef nonnull align 8 dereferenceable(32) %12) #16
  %13 = getelementptr inbounds i8, ptr %0, i64 648
  tail call void @_ZNSt7__cxx1112basic_stringIcSt11char_traitsIcESaIcEEC1Ev(ptr noundef nonnull align 8 dereferenceable(32) %13) #16
  %14 = getelementptr inbounds i8, ptr %0, i64 680
  tail call void @_ZNSt7__cxx1112basic_stringIcSt11char_traitsIcESaIcEEC1Ev(ptr noundef nonnull align 8 dereferenceable(32) %14) #16
  %15 = getelementptr inbounds i8, ptr %0, i64 712
  %16 = getelementptr inbounds i8, ptr %0, i64 440
  store i8 0, ptr %16, align 8
  %17 = getelementptr inbounds i8, ptr %0, i64 640
  store i8 0, ptr %17, align 8
  %18 = getelementptr inbounds i8, ptr %0, i64 768
  store double 0.000000e+00, ptr %18, align 8
  tail call void @llvm.memset.p0.i64(ptr noundef nonnull align 8 dereferenceable(49) %15, i8 0, i64 49, i1 false)
  ret void
}